; Function Attrs: mustprogress nofree norecurse nosync nounwind memory(readwrite, inaccessiblemem: none) uwtable
define hidden void @_ZNK12mpff_manager18to_buffer_shiftingEjRK4mpff(ptr noundef nonnull readonly align 8 captures(none) dereferenceable(89) %0, i32 noundef %1, ptr noundef nonnull readonly align 4 captures(none) dereferenceable(8) %2) local_unnamed_addr #9 align 2 {
  %4 = getelementptr inbounds nuw i8, ptr %0, i64 8
  %5 = load ptr, ptr %4, align 8, !tbaa !3
  %6 = load i32, ptr %2, align 4
  %7 = lshr i32 %6, 1
  %8 = load i32, ptr %0, align 8, !tbaa !13
  %9 = mul i32 %7, %8
  %10 = zext i32 %9 to i64
  %11 = getelementptr inbounds nuw i32, ptr %5, i64 %10
  %.not = icmp eq i32 %8, 0
  br i1 %.not, label %._crit_edge, label %.lr.ph

.lr.ph:                                           ; preds = %3
  %12 = getelementptr inbounds nuw i8, ptr %0, i64 40
  %13 = zext i32 %1 to i64
  %14 = getelementptr inbounds nuw [4 x %class.svector], ptr %12, i64 0, i64 %13
  %15 = load ptr, ptr %14, align 8, !tbaa !3
  br label %16

._crit_edge:                                      ; preds = %16, %3
  ret void

16:                                               ; preds = %.lr.ph, %16
  %indvars.iv = phi i64 [ 0, %.lr.ph ], [ %indvars.iv.next, %16 ]
  %.01112 = phi i32 [ %8, %.lr.ph ], [ %22, %16 ]
  %17 = getelementptr inbounds nuw i32, ptr %15, i64 %indvars.iv
  store i32 0, ptr %17, align 4, !tbaa !21
  %18 = getelementptr inbounds nuw i32, ptr %11, i64 %indvars.iv
  %19 = load i32, ptr %18, align 4, !tbaa !21
  %20 = zext i32 %.01112 to i64
  %21 = getelementptr inbounds nuw i32, ptr %15, i64 %20
  store i32 %19, ptr %21, align 4, !tbaa !21
  %indvars.iv.next = add nuw nsw i64 %indvars.iv, 1
  %22 = add i32 %.01112, 1
  %23 = load i32, ptr %0, align 8, !tbaa !13
  %24 = zext i32 %23 to i64
  %25 = icmp samesign ult i64 %indvars.iv.next, %24
  br i1 %25, label %16, label %._crit_edge, !llvm.loop !41
}